; Function Attrs: mustprogress nofree nounwind uwtable
define void @_ZN15gmx_ewald_tab_tC2ERK10t_inputrecP8_IO_FILE(ptr noundef nonnull writeonly align 8 captures(none) dereferenceable(64) initializes((0, 64)) %0, ptr noundef nonnull readonly align 8 captures(none) dereferenceable(880) %1, ptr noundef %2) unnamed_addr #0 align 2 personality ptr @__gxx_personality_v0 {
  %4 = getelementptr inbounds nuw i8, ptr %0, i64 16
  %.not = icmp eq ptr %2, null
  tail call void @llvm.memset.p0.i64(ptr noundef nonnull align 8 dereferenceable(48) %4, i8 0, i64 48, i1 false)
  br i1 %.not, label %7, label %5

5:                                                ; preds = %3
  %6 = tail call i64 @fwrite(ptr nonnull @.str, i64 45, i64 1, ptr nonnull %2)
  br label %7

7:                                                ; preds = %5, %3
  %8 = getelementptr inbounds nuw i8, ptr %1, i64 140
  %9 = load i32, ptr %8, align 4, !tbaa !4
  %10 = add nsw i32 %9, 1
  store i32 %10, ptr %0, align 8, !tbaa !102
  %11 = getelementptr inbounds nuw i8, ptr %1, i64 144
  %12 = load i32, ptr %11, align 8, !tbaa !109
  %13 = add nsw i32 %12, 1
  %14 = getelementptr inbounds nuw i8, ptr %0, i64 4
  store i32 %13, ptr %14, align 4, !tbaa !110
  %15 = getelementptr inbounds nuw i8, ptr %1, i64 148
  %16 = load i32, ptr %15, align 4, !tbaa !111
  %17 = add nsw i32 %16, 1
  %18 = getelementptr inbounds nuw i8, ptr %0, i64 8
  store i32 %17, ptr %18, align 8, !tbaa !112
  %19 = icmp slt i32 %12, %16
  %20 = select i1 %19, i32 %17, i32 %13
  %21 = tail call i32 @llvm.smax.i32(i32 %10, i32 %20)
  %22 = getelementptr inbounds nuw i8, ptr %0, i64 12
  store i32 %21, ptr %22, align 4, !tbaa !113
  ret void
}